; ModuleID = 'source-C-CXX/46/5272.c'
source_filename = "source-C-CXX/46/5272.c"
target datalayout = "e-m:e-p270:32:32-p271:32:32-p272:64:64-i64:64-f80:128-n8:16:32:64-S128"
target triple = "x86_64-pc-linux-gnu"

@.str = private unnamed_addr constant [3 x i8] c"%d\00", align 1
@.str.1 = private unnamed_addr constant [4 x i8] c"%d \00", align 1

; Function Attrs: nofree nounwind sspstrong uwtable
define dso_local void @main() local_unnamed_addr #0 {
  %1 = alloca i32, align 4
  %2 = bitcast i32* %1 to i8*
  call void @llvm.lifetime.start.p0i8(i64 4, i8* nonnull %2) #4
  %3 = call i32 (i8*, ...) @__isoc99_scanf(i8* getelementptr inbounds ([3 x i8], [3 x i8]* @.str, i64 0, i64 0), i32* nonnull %1)
  %4 = load i32, i32* %1, align 4, !tbaa !5
  %5 = sext i32 %4 to i64
  %6 = shl nsw i64 %5, 2
  %7 = call noalias align 16 i8* @malloc(i64 %6) #4
  %8 = bitcast i8* %7 to i32*
  %9 = icmp sgt i32 %4, 0
  br i1 %9, label %17, label %10

10:                                               ; preds = %0
  %11 = add i32 %4, -1
  br label %32

12:                                               ; preds = %17
  %13 = add i32 %22, -1
  %14 = icmp sgt i32 %22, 1
  br i1 %14, label %15, label %32

15:                                               ; preds = %12
  %16 = zext i32 %13 to i64
  br label %25

17:                                               ; preds = %0, %17
  %18 = phi i64 [ %21, %17 ], [ 0, %0 ]
  %19 = getelementptr inbounds i32, i32* %8, i64 %18
  %20 = call i32 (i8*, ...) @__isoc99_scanf(i8* getelementptr inbounds ([3 x i8], [3 x i8]* @.str, i64 0, i64 0), i32* %19)
  %21 = add nuw nsw i64 %18, 1
  %22 = load i32, i32* %1, align 4, !tbaa !5
  %23 = sext i32 %22 to i64
  %24 = icmp slt i64 %21, %23
  br i1 %24, label %17, label %12, !llvm.loop !9

25:                                               ; preds = %15, %25
  %26 = phi i64 [ %16, %15 ], [ %31, %25 ]
  %27 = getelementptr inbounds i32, i32* %8, i64 %26
  %28 = load i32, i32* %27, align 4, !tbaa !5
  %29 = call i32 (i8*, ...) @printf(i8* nonnull dereferenceable(1) getelementptr inbounds ([4 x i8], [4 x i8]* @.str.1, i64 0, i64 0), i32 %28)
  %30 = icmp sgt i64 %26, 1
  %31 = add nsw i64 %26, -1
  br i1 %30, label %25, label %32, !llvm.loop !11

32:                                               ; preds = %25, %10, %12
  %33 = phi i32 [ %13, %12 ], [ %11, %10 ], [ 0, %25 ]
  %34 = sext i32 %33 to i64
  %35 = getelementptr inbounds i32, i32* %8, i64 %34
  %36 = load i32, i32* %35, align 4, !tbaa !5
  %37 = call i32 (i8*, ...) @printf(i8* nonnull dereferenceable(1) getelementptr inbounds ([3 x i8], [3 x i8]* @.str, i64 0, i64 0), i32 %36)
  call void @llvm.lifetime.end.p0i8(i64 4, i8* nonnull %2) #4
  ret void
}

; Function Attrs: argmemonly mustprogress nofree nosync nounwind willreturn
declare void @llvm.lifetime.start.p0i8(i64 immarg, i8* nocapture) #1

; Function Attrs: nofree nounwind
declare noundef i32 @__isoc99_scanf(i8* nocapture noundef readonly, ...) local_unnamed_addr #2

; Function Attrs: inaccessiblememonly mustprogress nofree nounwind willreturn
declare noalias noundef align 16 i8* @malloc(i64 noundef) local_unnamed_addr #3

; Function Attrs: nofree nounwind
declare noundef i32 @printf(i8* nocapture noundef readonly, ...) local_unnamed_addr #2

; Function Attrs: argmemonly mustprogress nofree nosync nounwind willreturn
declare void @llvm.lifetime.end.p0i8(i64 immarg, i8* nocapture) #1


!llvm.module.flags = !{!0, !1, !2, !3}
!llvm.ident = !{!4}

!0 = !{i32 1, !"wchar_size", i32 4}
!1 = !{i32 7, !"PIC Level", i32 2}
!2 = !{i32 7, !"PIE Level", i32 2}
!3 = !{i32 7, !"uwtable", i32 1}
!4 = !{!"clang version 13.0.0"}
!5 = !{!6, !6, i64 0}
!6 = !{!"int", !7, i64 0}
!7 = !{!"omnipotent char", !8, i64 0}
!8 = !{!"Simple C/C++ TBAA"}
!9 = distinct !{!9, !10}
!10 = !{!"llvm.loop.mustprogress"}
!11 = distinct !{!11, !10}
